; Function Attrs: mustprogress uwtable
define internal void @"_ZN9QtPrivate18QFunctorSlotObjectIZN19WiresharkMainWindowC1EP7QWidgetE3$_0Li0ENS_4ListIJEEEvE4implEiPNS_15QSlotObjectBaseEP7QObjectPPvPb"(i32 noundef %0, ptr noundef %1, ptr nocapture readnone %2, ptr nocapture readnone %3, ptr nocapture readnone %4) #0 align 2 {
  switch i32 %0, label %11 [
    i32 0, label %6
    i32 1, label %9
  ]

6:                                                ; preds = %5
  %7 = icmp eq ptr %1, null
  br i1 %7, label %11, label %8

8:                                                ; preds = %6
  tail call void @_ZdlPv(ptr noundef nonnull %1) #27
  br label %11

9:                                                ; preds = %5
  %10 = getelementptr inbounds i8, ptr %1, i64 16
  %.val = load ptr, ptr %10, align 8
  tail call void @_ZN19WiresharkMainWindow21statCommandExpertInfoEPKcPv(ptr noundef nonnull align 8 dereferenceable(520) %.val, ptr noundef null, ptr noundef null)
  br label %11

11:                                               ; preds = %6, %8, %9, %5
  ret void
}